; Function Attrs: mustprogress nounwind uwtable
define dso_local noundef ptr @_ZN4llvm9DIBuilder19getOrCreateSubrangeEll(ptr nocapture noundef nonnull readonly align 8 dereferenceable(416) %0, i64 noundef %1, i64 noundef %2) local_unnamed_addr #0 align 2 {
  %4 = getelementptr inbounds nuw i8, ptr %0, i64 8
  %5 = load ptr, ptr %4, align 8
  %6 = tail call noundef ptr @_ZN4llvm4Type10getInt64TyERNS_11LLVMContextE(ptr noundef nonnull align 8 dereferenceable(8) %5) #13
  %7 = tail call noundef ptr @_ZN4llvm11ConstantInt3getEPNS_11IntegerTypeEmb(ptr noundef %6, i64 noundef %1, i1 noundef zeroext true) #13
  %8 = tail call noundef ptr @_ZN4llvm15ValueAsMetadata3getEPNS_5ValueE(ptr noundef %7) #13
  %9 = load ptr, ptr %4, align 8
  %10 = tail call noundef ptr @_ZN4llvm4Type10getInt64TyERNS_11LLVMContextE(ptr noundef nonnull align 8 dereferenceable(8) %9) #13
  %11 = tail call noundef ptr @_ZN4llvm11ConstantInt3getEPNS_11IntegerTypeEmb(ptr noundef %10, i64 noundef %2, i1 noundef zeroext true) #13
  %12 = tail call noundef ptr @_ZN4llvm15ValueAsMetadata3getEPNS_5ValueE(ptr noundef %11) #13
  %13 = load ptr, ptr %4, align 8
  %14 = tail call noundef ptr @_ZN4llvm10DISubrange7getImplERNS_11LLVMContextEPNS_8MetadataES4_S4_S4_NS3_11StorageTypeEb(ptr noundef nonnull align 8 dereferenceable(8) %13, ptr noundef %12, ptr noundef %8, ptr noundef null, ptr noundef null, i32 noundef 0, i1 noundef zeroext true) #13
  ret ptr %14
}